target datalayout = "e-m:e-p270:32:32-p271:32:32-p272:64:64-i64:64-i128:128-f80:128-n8:16:32:64-S128"
target triple = "x86_64-pc-linux-gnu"

%struct._address = type { i32, i32, ptr, ptr }
%struct._packet_info = type { ptr, ptr, i32, i32, %struct.nstime_t, %struct.nstime_t, %struct.nstime_t, i8, ptr, ptr, ptr, ptr, %struct._address, %struct._address, %struct._address, %struct._address, %struct._address, %struct._address, i32, ptr, i8, [3 x i8], %struct.anon, i32, i32, i32, i32, ptr, i8, ptr, ptr, i16, i16, i32, i32, i16, i32, i32, ptr, ptr, ptr, i8, i8, i16, i16, i16, i32, i16, i16, ptr, ptr, ptr, ptr, ptr, i32, i32 }
%struct.nstime_t = type { i64, i32 }
%struct.anon = type { i8, [3 x i8] }
%struct.ethertype_data_s = type { i16, i32, ptr, i32, i32 }

@hf_sll_trailer = internal global i32 0, align 4
@proto_sll = internal global i32 0, align 4
@sll_hatype_dissector_table = internal global ptr null, align 8
@sll_ltype_dissector_table = internal global ptr null, align 8
@gre_dissector_table = internal global ptr null, align 8
@ethertype_handle = internal global ptr null, align 8

; Function Attrs: null_pointer_is_valid sspstrong uwtable
define internal void @dissect_payload(ptr noundef %0, ptr noundef %1, ptr noundef %2, ptr noundef %3, i32 noundef %4, i32 noundef %5, i16 noundef zeroext %6) #0 {
  %8 = alloca ptr, align 8
  %9 = alloca ptr, align 8
  %10 = alloca ptr, align 8
  %11 = alloca ptr, align 8
  %12 = alloca i32, align 4
  %13 = alloca i32, align 4
  %14 = alloca i16, align 2
  %15 = alloca ptr, align 8
  %16 = alloca %struct.ethertype_data_s, align 8
  store ptr %0, ptr %8, align 8
  store ptr %1, ptr %9, align 8
  store ptr %2, ptr %10, align 8
  store ptr %3, ptr %11, align 8
  store i32 %4, ptr %12, align 4
  store i32 %5, ptr %13, align 4
  store i16 %6, ptr %14, align 2
  call void @llvm.lifetime.start.p0(i64 8, ptr %15) #10
  call void @llvm.lifetime.start.p0(i64 24, ptr %16) #10
  %17 = load ptr, ptr %11, align 8
  %18 = load i32, ptr %12, align 4
  %19 = call ptr @tvb_new_subset_remaining(ptr noundef %17, i32 noundef %18)
  store ptr %19, ptr %15, align 8
  %20 = load i16, ptr %14, align 2
  %21 = zext i16 %20 to i32
  %22 = icmp sle i32 %21, 1536
  br i1 %22, label %23, label %56

23:                                               ; preds = %7
  %24 = load ptr, ptr @sll_hatype_dissector_table, align 8
  %25 = load i32, ptr %13, align 4
  %26 = load ptr, ptr %15, align 8
  %27 = load ptr, ptr %9, align 8
  %28 = load ptr, ptr %8, align 8
  %29 = call i32 @dissector_try_uint(ptr noundef %24, i32 noundef %25, ptr noundef %26, ptr noundef %27, ptr noundef %28)
  %30 = icmp ne i32 %29, 0
  br i1 %30, label %55, label %31

31:                                               ; preds = %23
  %32 = load ptr, ptr %9, align 8
  %33 = getelementptr inbounds nuw %struct._packet_info, ptr %32, i32 0, i32 51
  %34 = load ptr, ptr %33, align 8
  %35 = load ptr, ptr %9, align 8
  %36 = load i32, ptr @proto_sll, align 4
  %37 = load i16, ptr %14, align 2
  %38 = zext i16 %37 to i32
  %39 = zext i32 %38 to i64
  %40 = inttoptr i64 %39 to ptr
  call void @p_add_proto_data(ptr noundef %34, ptr noundef %35, i32 noundef %36, i32 noundef 0, ptr noundef %40)
  %41 = load ptr, ptr @sll_ltype_dissector_table, align 8
  %42 = load i16, ptr %14, align 2
  %43 = zext i16 %42 to i32
  %44 = load ptr, ptr %15, align 8
  %45 = load ptr, ptr %9, align 8
  %46 = load ptr, ptr %8, align 8
  %47 = call i32 @dissector_try_uint(ptr noundef %41, i32 noundef %43, ptr noundef %44, ptr noundef %45, ptr noundef %46)
  %48 = icmp ne i32 %47, 0
  br i1 %48, label %54, label %49

49:                                               ; preds = %31
  %50 = load ptr, ptr %15, align 8
  %51 = load ptr, ptr %9, align 8
  %52 = load ptr, ptr %8, align 8
  %53 = call i32 @call_data_dissector(ptr noundef %50, ptr noundef %51, ptr noundef %52)
  br label %54

54:                                               ; preds = %49, %31
  br label %55

55:                                               ; preds = %54, %23
  br label %82

56:                                               ; preds = %7
  %57 = load i32, ptr %13, align 4
  switch i32 %57, label %66 [
    i32 778, label %58
  ]

58:                                               ; preds = %56
  %59 = load ptr, ptr @gre_dissector_table, align 8
  %60 = load i16, ptr %14, align 2
  %61 = zext i16 %60 to i32
  %62 = load ptr, ptr %15, align 8
  %63 = load ptr, ptr %9, align 8
  %64 = load ptr, ptr %8, align 8
  %65 = call i32 @dissector_try_uint(ptr noundef %59, i32 noundef %61, ptr noundef %62, ptr noundef %63, ptr noundef %64)
  br label %81

66:                                               ; preds = %56
  %67 = load i16, ptr %14, align 2
  %68 = getelementptr inbounds nuw %struct.ethertype_data_s, ptr %16, i32 0, i32 0
  store i16 %67, ptr %68, align 8
  %69 = load i32, ptr %12, align 4
  %70 = getelementptr inbounds nuw %struct.ethertype_data_s, ptr %16, i32 0, i32 1
  store i32 %69, ptr %70, align 4
  %71 = load ptr, ptr %10, align 8
  %72 = getelementptr inbounds nuw %struct.ethertype_data_s, ptr %16, i32 0, i32 2
  store ptr %71, ptr %72, align 8
  %73 = load i32, ptr @hf_sll_trailer, align 4
  %74 = getelementptr inbounds nuw %struct.ethertype_data_s, ptr %16, i32 0, i32 3
  store i32 %73, ptr %74, align 8
  %75 = getelementptr inbounds nuw %struct.ethertype_data_s, ptr %16, i32 0, i32 4
  store i32 0, ptr %75, align 4
  %76 = load ptr, ptr @ethertype_handle, align 8
  %77 = load ptr, ptr %11, align 8
  %78 = load ptr, ptr %9, align 8
  %79 = load ptr, ptr %8, align 8
  %80 = call i32 @call_dissector_with_data(ptr noundef %76, ptr noundef %77, ptr noundef %78, ptr noundef %79, ptr noundef %16)
  br label %81

81:                                               ; preds = %66, %58
  br label %82

82:                                               ; preds = %81, %55
  call void @llvm.lifetime.end.p0(i64 24, ptr %16) #10
  call void @llvm.lifetime.end.p0(i64 8, ptr %15) #10
  ret void
}