; Function Attrs: null_pointer_is_valid sspstrong uwtable
define internal fastcc void @dissect_payload(ptr noundef %0, ptr noundef %1, ptr noundef %2, ptr noundef %3, i32 noundef range(i32 16, 21) %4, i32 noundef range(i32 0, 65536) %5, i16 noundef zeroext %6) unnamed_addr #0 {
  %8 = alloca %struct.ethertype_data_s, align 8
  call void @llvm.lifetime.start.p0(i64 24, ptr nonnull %8) #12
  %9 = tail call ptr @tvb_new_subset_remaining(ptr noundef %3, i32 noundef %4)
  %10 = zext i16 %6 to i32
  %11 = icmp ult i16 %6, 1537
  br i1 %11, label %12, label %25

12:                                               ; preds = %7
  %13 = load ptr, ptr @sll_hatype_dissector_table, align 8
  %14 = tail call i32 @dissector_try_uint(ptr noundef %13, i32 noundef %5, ptr noundef %9, ptr noundef %1, ptr noundef %0)
  %.not = icmp eq i32 %14, 0
  br i1 %.not, label %15, label %37

15:                                               ; preds = %12
  %16 = getelementptr inbounds nuw i8, ptr %1, i64 408
  %17 = load ptr, ptr %16, align 8
  %18 = load i32, ptr @proto_sll, align 4
  %19 = zext nneg i16 %6 to i64
  %20 = inttoptr i64 %19 to ptr
  tail call void @p_add_proto_data(ptr noundef %17, ptr noundef %1, i32 noundef %18, i32 noundef 0, ptr noundef %20)
  %21 = load ptr, ptr @sll_ltype_dissector_table, align 8
  %22 = tail call i32 @dissector_try_uint(ptr noundef %21, i32 noundef %10, ptr noundef %9, ptr noundef %1, ptr noundef %0)
  %.not27 = icmp eq i32 %22, 0
  br i1 %.not27, label %23, label %37

23:                                               ; preds = %15
  %24 = tail call i32 @call_data_dissector(ptr noundef %9, ptr noundef %1, ptr noundef %0)
  br label %37

25:                                               ; preds = %7
  %cond = icmp eq i32 %5, 778
  br i1 %cond, label %26, label %29

26:                                               ; preds = %25
  %27 = load ptr, ptr @gre_dissector_table, align 8
  %28 = tail call i32 @dissector_try_uint(ptr noundef %27, i32 noundef %10, ptr noundef %9, ptr noundef %1, ptr noundef %0)
  br label %37

29:                                               ; preds = %25
  store i16 %6, ptr %8, align 8
  %30 = getelementptr inbounds nuw i8, ptr %8, i64 4
  store i32 %4, ptr %30, align 4
  %31 = getelementptr inbounds nuw i8, ptr %8, i64 8
  store ptr %2, ptr %31, align 8
  %32 = load i32, ptr @hf_sll_trailer, align 4
  %33 = getelementptr inbounds nuw i8, ptr %8, i64 16
  store i32 %32, ptr %33, align 8
  %34 = getelementptr inbounds nuw i8, ptr %8, i64 20
  store i32 0, ptr %34, align 4
  %35 = load ptr, ptr @ethertype_handle, align 8
  %36 = call i32 @call_dissector_with_data(ptr noundef %35, ptr noundef %3, ptr noundef %1, ptr noundef %0, ptr noundef nonnull %8)
  br label %37

37:                                               ; preds = %26, %29, %12, %23, %15
  call void @llvm.lifetime.end.p0(i64 24, ptr nonnull %8) #12
  ret void
}